target datalayout = "e-m:e-p270:32:32-p271:32:32-p272:64:64-i64:64-i128:128-f80:128-n8:16:32:64-S128"
target triple = "x86_64-pc-linux-gnu"

%struct._timelib_time = type { i64, i64, i64, i64, i64, i64, i64, i32, ptr, ptr, i32, %struct._timelib_rel_time, i64, i32, i32, i32, i32, i32, i32, i32, i32, i32 }
%struct._timelib_rel_time = type { i64, i64, i64, i64, i64, i64, i64, i32, i32, i32, i32, i64, %struct.anon, i32, i32 }
%struct.anon = type { i32, i64 }

; Function Attrs: nounwind uwtable
define internal void @do_range_limit(i64 noundef %0, i64 noundef %1, i64 noundef %2, ptr noundef %3, ptr noundef %4) #0 {
  %6 = alloca i64, align 8
  %7 = alloca i64, align 8
  %8 = alloca i64, align 8
  %9 = alloca ptr, align 8
  %10 = alloca ptr, align 8
  store i64 %0, ptr %6, align 8, !tbaa !49
  store i64 %1, ptr %7, align 8, !tbaa !49
  store i64 %2, ptr %8, align 8, !tbaa !49
  store ptr %3, ptr %9, align 8, !tbaa !66
  store ptr %4, ptr %10, align 8, !tbaa !66
  %11 = load ptr, ptr %9, align 8, !tbaa !66
  %12 = load i64, ptr %11, align 8, !tbaa !49
  %13 = load i64, ptr %6, align 8, !tbaa !49
  %14 = icmp slt i64 %12, %13
  br i1 %14, label %15, label %40

15:                                               ; preds = %5
  %16 = load i64, ptr %6, align 8, !tbaa !49
  %17 = load ptr, ptr %9, align 8, !tbaa !66
  %18 = load i64, ptr %17, align 8, !tbaa !49
  %19 = sub i64 %16, %18
  %20 = sub i64 %19, 1
  %21 = load i64, ptr %8, align 8, !tbaa !49
  %22 = sdiv i64 %20, %21
  %23 = add i64 %22, 1
  %24 = load ptr, ptr %10, align 8, !tbaa !66
  %25 = load i64, ptr %24, align 8, !tbaa !49
  %26 = sub i64 %25, %23
  store i64 %26, ptr %24, align 8, !tbaa !49
  %27 = load i64, ptr %8, align 8, !tbaa !49
  %28 = load i64, ptr %6, align 8, !tbaa !49
  %29 = load ptr, ptr %9, align 8, !tbaa !66
  %30 = load i64, ptr %29, align 8, !tbaa !49
  %31 = sub i64 %28, %30
  %32 = sub i64 %31, 1
  %33 = load i64, ptr %8, align 8, !tbaa !49
  %34 = sdiv i64 %32, %33
  %35 = add i64 %34, 1
  %36 = mul i64 %27, %35
  %37 = load ptr, ptr %9, align 8, !tbaa !66
  %38 = load i64, ptr %37, align 8, !tbaa !49
  %39 = add i64 %38, %36
  store i64 %39, ptr %37, align 8, !tbaa !49
  br label %40

40:                                               ; preds = %15, %5
  %41 = load ptr, ptr %9, align 8, !tbaa !66
  %42 = load i64, ptr %41, align 8, !tbaa !49
  %43 = load i64, ptr %7, align 8, !tbaa !49
  %44 = icmp sge i64 %42, %43
  br i1 %44, label %45, label %62

45:                                               ; preds = %40
  %46 = load ptr, ptr %9, align 8, !tbaa !66
  %47 = load i64, ptr %46, align 8, !tbaa !49
  %48 = load i64, ptr %8, align 8, !tbaa !49
  %49 = sdiv i64 %47, %48
  %50 = load ptr, ptr %10, align 8, !tbaa !66
  %51 = load i64, ptr %50, align 8, !tbaa !49
  %52 = add i64 %51, %49
  store i64 %52, ptr %50, align 8, !tbaa !49
  %53 = load i64, ptr %8, align 8, !tbaa !49
  %54 = load ptr, ptr %9, align 8, !tbaa !66
  %55 = load i64, ptr %54, align 8, !tbaa !49
  %56 = load i64, ptr %8, align 8, !tbaa !49
  %57 = sdiv i64 %55, %56
  %58 = mul i64 %53, %57
  %59 = load ptr, ptr %9, align 8, !tbaa !66
  %60 = load i64, ptr %59, align 8, !tbaa !49
  %61 = sub i64 %60, %58
  store i64 %61, ptr %59, align 8, !tbaa !49
  br label %62

62:                                               ; preds = %45, %40
  ret void
}

; Function Attrs: nounwind uwtable
define hidden ptr @timelib_add_wall(ptr noundef %0, ptr noundef %1) #0 {
  %3 = alloca ptr, align 8
  %4 = alloca ptr, align 8
  %5 = alloca i32, align 4
  %6 = alloca ptr, align 8
  %7 = alloca ptr, align 8
  store ptr %0, ptr %3, align 8, !tbaa !4
  store ptr %1, ptr %4, align 8, !tbaa !29
  call void @llvm.lifetime.start.p0(i64 4, ptr %5) #7
  store i32 1, ptr %5, align 4, !tbaa !51
  call void @llvm.lifetime.start.p0(i64 8, ptr %6) #7
  %8 = load ptr, ptr %3, align 8, !tbaa !4
  %9 = call ptr @timelib_time_clone(ptr noundef %8)
  store ptr %9, ptr %6, align 8, !tbaa !4
  %10 = load ptr, ptr %6, align 8, !tbaa !4
  %11 = getelementptr inbounds nuw %struct._timelib_time, ptr %10, i32 0, i32 16
  store i32 1, ptr %11, align 4, !tbaa !64
  %12 = load ptr, ptr %6, align 8, !tbaa !4
  %13 = getelementptr inbounds nuw %struct._timelib_time, ptr %12, i32 0, i32 18
  store i32 0, ptr %13, align 4, !tbaa !65
  %14 = load ptr, ptr %4, align 8, !tbaa !29
  %15 = getelementptr inbounds nuw %struct._timelib_rel_time, ptr %14, i32 0, i32 13
  %16 = load i32, ptr %15, align 8, !tbaa !55
  %17 = icmp ne i32 %16, 0
  br i1 %17, label %23, label %18

18:                                               ; preds = %2
  %19 = load ptr, ptr %4, align 8, !tbaa !29
  %20 = getelementptr inbounds nuw %struct._timelib_rel_time, ptr %19, i32 0, i32 14
  %21 = load i32, ptr %20, align 4, !tbaa !56
  %22 = icmp ne i32 %21, 0
  br i1 %22, label %23, label %29

23:                                               ; preds = %18, %2
  %24 = load ptr, ptr %6, align 8, !tbaa !4
  %25 = getelementptr inbounds nuw %struct._timelib_time, ptr %24, i32 0, i32 11
  %26 = load ptr, ptr %4, align 8, !tbaa !29
  call void @llvm.memcpy.p0.p0.i64(ptr align 8 %25, ptr align 8 %26, i64 104, i1 false)
  %27 = load ptr, ptr %6, align 8, !tbaa !4
  call void @timelib_update_ts(ptr noundef %27, ptr noundef null)
  %28 = load ptr, ptr %6, align 8, !tbaa !4
  call void @timelib_update_from_sse(ptr noundef %28)
  br label %148

29:                                               ; preds = %18
  %30 = load ptr, ptr %4, align 8, !tbaa !29
  %31 = getelementptr inbounds nuw %struct._timelib_rel_time, ptr %30, i32 0, i32 10
  %32 = load i32, ptr %31, align 4, !tbaa !31
  %33 = icmp ne i32 %32, 0
  br i1 %33, label %34, label %35

34:                                               ; preds = %29
  store i32 -1, ptr %5, align 4, !tbaa !51
  br label %35

35:                                               ; preds = %34, %29
  %36 = load ptr, ptr %6, align 8, !tbaa !4
  %37 = getelementptr inbounds nuw %struct._timelib_time, ptr %36, i32 0, i32 11
  call void @llvm.memset.p0.i64(ptr align 8 %37, i8 0, i64 104, i1 false)
  %38 = load ptr, ptr %4, align 8, !tbaa !29
  %39 = getelementptr inbounds nuw %struct._timelib_rel_time, ptr %38, i32 0, i32 0
  %40 = load i64, ptr %39, align 8, !tbaa !33
  %41 = load i32, ptr %5, align 4, !tbaa !51
  %42 = sext i32 %41 to i64
  %43 = mul i64 %40, %42
  %44 = load ptr, ptr %6, align 8, !tbaa !4
  %45 = getelementptr inbounds nuw %struct._timelib_time, ptr %44, i32 0, i32 11
  %46 = getelementptr inbounds nuw %struct._timelib_rel_time, ptr %45, i32 0, i32 0
  store i64 %43, ptr %46, align 8, !tbaa !57
  %47 = load ptr, ptr %4, align 8, !tbaa !29
  %48 = getelementptr inbounds nuw %struct._timelib_rel_time, ptr %47, i32 0, i32 1
  %49 = load i64, ptr %48, align 8, !tbaa !35
  %50 = load i32, ptr %5, align 4, !tbaa !51
  %51 = sext i32 %50 to i64
  %52 = mul i64 %49, %51
  %53 = load ptr, ptr %6, align 8, !tbaa !4
  %54 = getelementptr inbounds nuw %struct._timelib_time, ptr %53, i32 0, i32 11
  %55 = getelementptr inbounds nuw %struct._timelib_rel_time, ptr %54, i32 0, i32 1
  store i64 %52, ptr %55, align 8, !tbaa !58
  %56 = load ptr, ptr %4, align 8, !tbaa !29
  %57 = getelementptr inbounds nuw %struct._timelib_rel_time, ptr %56, i32 0, i32 2
  %58 = load i64, ptr %57, align 8, !tbaa !37
  %59 = load i32, ptr %5, align 4, !tbaa !51
  %60 = sext i32 %59 to i64
  %61 = mul i64 %58, %60
  %62 = load ptr, ptr %6, align 8, !tbaa !4
  %63 = getelementptr inbounds nuw %struct._timelib_time, ptr %62, i32 0, i32 11
  %64 = getelementptr inbounds nuw %struct._timelib_rel_time, ptr %63, i32 0, i32 2
  store i64 %61, ptr %64, align 8, !tbaa !59
  %65 = load ptr, ptr %6, align 8, !tbaa !4
  %66 = getelementptr inbounds nuw %struct._timelib_time, ptr %65, i32 0, i32 11
  %67 = getelementptr inbounds nuw %struct._timelib_rel_time, ptr %66, i32 0, i32 0
  %68 = load i64, ptr %67, align 8, !tbaa !57
  %69 = icmp ne i64 %68, 0
  br i1 %69, label %82, label %70

70:                                               ; preds = %35
  %71 = load ptr, ptr %6, align 8, !tbaa !4
  %72 = getelementptr inbounds nuw %struct._timelib_time, ptr %71, i32 0, i32 11
  %73 = getelementptr inbounds nuw %struct._timelib_rel_time, ptr %72, i32 0, i32 1
  %74 = load i64, ptr %73, align 8, !tbaa !58
  %75 = icmp ne i64 %74, 0
  br i1 %75, label %82, label %76

76:                                               ; preds = %70
  %77 = load ptr, ptr %6, align 8, !tbaa !4
  %78 = getelementptr inbounds nuw %struct._timelib_time, ptr %77, i32 0, i32 11
  %79 = getelementptr inbounds nuw %struct._timelib_rel_time, ptr %78, i32 0, i32 2
  %80 = load i64, ptr %79, align 8, !tbaa !59
  %81 = icmp ne i64 %80, 0
  br i1 %81, label %82, label %84

82:                                               ; preds = %76, %70, %35
  %83 = load ptr, ptr %6, align 8, !tbaa !4
  call void @timelib_update_ts(ptr noundef %83, ptr noundef null)
  br label %84

84:                                               ; preds = %82, %76
  %85 = load ptr, ptr %4, align 8, !tbaa !29
  %86 = getelementptr inbounds nuw %struct._timelib_rel_time, ptr %85, i32 0, i32 6
  %87 = load i64, ptr %86, align 8, !tbaa !47
  %88 = icmp eq i64 %87, 0
  br i1 %88, label %89, label %108

89:                                               ; preds = %84
  %90 = load i32, ptr %5, align 4, !tbaa !51
  %91 = sext i32 %90 to i64
  %92 = load ptr, ptr %4, align 8, !tbaa !29
  %93 = getelementptr inbounds nuw %struct._timelib_rel_time, ptr %92, i32 0, i32 3
  %94 = load i64, ptr %93, align 8, !tbaa !39
  %95 = load ptr, ptr %4, align 8, !tbaa !29
  %96 = getelementptr inbounds nuw %struct._timelib_rel_time, ptr %95, i32 0, i32 4
  %97 = load i64, ptr %96, align 8, !tbaa !42
  %98 = load ptr, ptr %4, align 8, !tbaa !29
  %99 = getelementptr inbounds nuw %struct._timelib_rel_time, ptr %98, i32 0, i32 5
  %100 = load i64, ptr %99, align 8, !tbaa !45
  %101 = call i64 @timelib_hms_to_seconds(i64 noundef %94, i64 noundef %97, i64 noundef %100)
  %102 = mul i64 %91, %101
  %103 = load ptr, ptr %6, align 8, !tbaa !4
  %104 = getelementptr inbounds nuw %struct._timelib_time, ptr %103, i32 0, i32 12
  %105 = load i64, ptr %104, align 8, !tbaa !50
  %106 = add i64 %105, %102
  store i64 %106, ptr %104, align 8, !tbaa !50
  %107 = load ptr, ptr %6, align 8, !tbaa !4
  call void @timelib_update_from_sse(ptr noundef %107)
  br label %146

108:                                              ; preds = %84
  call void @llvm.lifetime.start.p0(i64 8, ptr %7) #7
  %109 = load ptr, ptr %4, align 8, !tbaa !29
  %110 = call ptr @timelib_rel_time_clone(ptr noundef %109)
  store ptr %110, ptr %7, align 8, !tbaa !29
  %111 = load ptr, ptr %7, align 8, !tbaa !29
  %112 = getelementptr inbounds nuw %struct._timelib_rel_time, ptr %111, i32 0, i32 6
  %113 = load ptr, ptr %7, align 8, !tbaa !29
  %114 = getelementptr inbounds nuw %struct._timelib_rel_time, ptr %113, i32 0, i32 5
  call void @do_range_limit(i64 noundef 0, i64 noundef 1000000, i64 noundef 1000000, ptr noundef %112, ptr noundef %114)
  %115 = load i32, ptr %5, align 4, !tbaa !51
  %116 = sext i32 %115 to i64
  %117 = load ptr, ptr %7, align 8, !tbaa !29
  %118 = getelementptr inbounds nuw %struct._timelib_rel_time, ptr %117, i32 0, i32 3
  %119 = load i64, ptr %118, align 8, !tbaa !39
  %120 = load ptr, ptr %7, align 8, !tbaa !29
  %121 = getelementptr inbounds nuw %struct._timelib_rel_time, ptr %120, i32 0, i32 4
  %122 = load i64, ptr %121, align 8, !tbaa !42
  %123 = load ptr, ptr %7, align 8, !tbaa !29
  %124 = getelementptr inbounds nuw %struct._timelib_rel_time, ptr %123, i32 0, i32 5
  %125 = load i64, ptr %124, align 8, !tbaa !45
  %126 = call i64 @timelib_hms_to_seconds(i64 noundef %119, i64 noundef %122, i64 noundef %125)
  %127 = mul i64 %116, %126
  %128 = load ptr, ptr %6, align 8, !tbaa !4
  %129 = getelementptr inbounds nuw %struct._timelib_time, ptr %128, i32 0, i32 12
  %130 = load i64, ptr %129, align 8, !tbaa !50
  %131 = add i64 %130, %127
  store i64 %131, ptr %129, align 8, !tbaa !50
  %132 = load ptr, ptr %6, align 8, !tbaa !4
  call void @timelib_update_from_sse(ptr noundef %132)
  %133 = load ptr, ptr %7, align 8, !tbaa !29
  %134 = getelementptr inbounds nuw %struct._timelib_rel_time, ptr %133, i32 0, i32 6
  %135 = load i64, ptr %134, align 8, !tbaa !47
  %136 = load i32, ptr %5, align 4, !tbaa !51
  %137 = sext i32 %136 to i64
  %138 = mul i64 %135, %137
  %139 = load ptr, ptr %6, align 8, !tbaa !4
  %140 = getelementptr inbounds nuw %struct._timelib_time, ptr %139, i32 0, i32 6
  %141 = load i64, ptr %140, align 8, !tbaa !46
  %142 = add i64 %141, %138
  store i64 %142, ptr %140, align 8, !tbaa !46
  %143 = load ptr, ptr %6, align 8, !tbaa !4
  call void @timelib_do_normalize(ptr noundef %143)
  %144 = load ptr, ptr %6, align 8, !tbaa !4
  call void @timelib_update_ts(ptr noundef %144, ptr noundef null)
  %145 = load ptr, ptr %7, align 8, !tbaa !29
  call void @timelib_rel_time_dtor(ptr noundef %145)
  call void @llvm.lifetime.end.p0(i64 8, ptr %7) #7
  br label %146

146:                                              ; preds = %108, %89
  %147 = load ptr, ptr %6, align 8, !tbaa !4
  call void @timelib_do_normalize(ptr noundef %147)
  br label %148

148:                                              ; preds = %146, %23
  %149 = load ptr, ptr %6, align 8, !tbaa !4
  %150 = getelementptr inbounds nuw %struct._timelib_time, ptr %149, i32 0, i32 21
  %151 = load i32, ptr %150, align 8, !tbaa !9
  %152 = icmp eq i32 %151, 3
  br i1 %152, label %153, label %158

153:                                              ; preds = %148
  %154 = load ptr, ptr %6, align 8, !tbaa !4
  %155 = load ptr, ptr %6, align 8, !tbaa !4
  %156 = getelementptr inbounds nuw %struct._timelib_time, ptr %155, i32 0, i32 9
  %157 = load ptr, ptr %156, align 8, !tbaa !17
  call void @timelib_set_timezone(ptr noundef %154, ptr noundef %157)
  br label %158

158:                                              ; preds = %153, %148
  %159 = load ptr, ptr %6, align 8, !tbaa !4
  %160 = getelementptr inbounds nuw %struct._timelib_time, ptr %159, i32 0, i32 16
  store i32 0, ptr %160, align 4, !tbaa !64
  %161 = load ptr, ptr %6, align 8, !tbaa !4
  call void @llvm.lifetime.end.p0(i64 8, ptr %6) #7
  call void @llvm.lifetime.end.p0(i64 4, ptr %5) #7
  ret ptr %161
}