; Function Attrs: nounwind uwtable
define hidden ptr @timelib_add_wall(ptr noundef %0, ptr noundef %1) local_unnamed_addr #0 {
  %3 = tail call ptr @timelib_time_clone(ptr noundef %0) #9
  %4 = getelementptr inbounds nuw i8, ptr %3, i64 212
  store i32 1, ptr %4, align 4, !tbaa !60
  %5 = getelementptr inbounds nuw i8, ptr %3, i64 220
  store i32 0, ptr %5, align 4, !tbaa !61
  %6 = getelementptr inbounds nuw i8, ptr %1, i64 96
  %7 = load i32, ptr %6, align 8, !tbaa !51
  %.not = icmp eq i32 %7, 0
  br i1 %.not, label %8, label %11

8:                                                ; preds = %2
  %9 = getelementptr inbounds nuw i8, ptr %1, i64 100
  %10 = load i32, ptr %9, align 4, !tbaa !52
  %.not51 = icmp eq i32 %10, 0
  br i1 %.not51, label %13, label %11

11:                                               ; preds = %8, %2
  %12 = getelementptr inbounds nuw i8, ptr %3, i64 88
  tail call void @llvm.memcpy.p0.p0.i64(ptr noundef nonnull align 8 dereferenceable(104) %12, ptr noundef nonnull align 8 dereferenceable(104) %1, i64 104, i1 false)
  tail call void @timelib_update_ts(ptr noundef nonnull %3, ptr noundef null) #9
  tail call void @timelib_update_from_sse(ptr noundef nonnull %3) #9
  br label %78

13:                                               ; preds = %8
  %14 = getelementptr inbounds nuw i8, ptr %1, i64 68
  %15 = load i32, ptr %14, align 4, !tbaa !29
  %.not52 = icmp eq i32 %15, 0
  %spec.select = select i1 %.not52, i64 1, i64 -1
  %16 = getelementptr inbounds nuw i8, ptr %3, i64 88
  tail call void @llvm.memset.p0.i64(ptr noundef nonnull align 8 dereferenceable(104) %16, i8 0, i64 104, i1 false)
  %17 = load i64, ptr %1, align 8, !tbaa !32
  %18 = mul i64 %17, %spec.select
  store i64 %18, ptr %16, align 8, !tbaa !53
  %19 = getelementptr inbounds nuw i8, ptr %1, i64 8
  %20 = load i64, ptr %19, align 8, !tbaa !34
  %21 = mul i64 %20, %spec.select
  %22 = getelementptr inbounds nuw i8, ptr %3, i64 96
  store i64 %21, ptr %22, align 8, !tbaa !54
  %23 = getelementptr inbounds nuw i8, ptr %1, i64 16
  %24 = load i64, ptr %23, align 8, !tbaa !36
  %25 = mul i64 %24, %spec.select
  %26 = getelementptr inbounds nuw i8, ptr %3, i64 104
  store i64 %25, ptr %26, align 8, !tbaa !55
  %.not53 = icmp eq i64 %17, 0
  br i1 %.not53, label %27, label %28

27:                                               ; preds = %13
  %.not54 = icmp eq i64 %20, 0
  %.not55 = icmp eq i64 %24, 0
  %or.cond = select i1 %.not54, i1 %.not55, i1 false
  br i1 %or.cond, label %29, label %28

28:                                               ; preds = %27, %13
  tail call void @timelib_update_ts(ptr noundef nonnull %3, ptr noundef null) #9
  br label %29

29:                                               ; preds = %27, %28
  %30 = getelementptr inbounds nuw i8, ptr %1, i64 48
  %31 = load i64, ptr %30, align 8, !tbaa !44
  %32 = icmp eq i64 %31, 0
  br i1 %32, label %33, label %45

33:                                               ; preds = %29
  %34 = getelementptr inbounds nuw i8, ptr %1, i64 24
  %35 = load i64, ptr %34, align 8, !tbaa !38
  %36 = getelementptr inbounds nuw i8, ptr %1, i64 32
  %37 = load i64, ptr %36, align 8, !tbaa !40
  %38 = getelementptr inbounds nuw i8, ptr %1, i64 40
  %39 = load i64, ptr %38, align 8, !tbaa !42
  %40 = tail call i64 @timelib_hms_to_seconds(i64 noundef %35, i64 noundef %37, i64 noundef %39) #9
  %41 = mul i64 %40, %spec.select
  %42 = getelementptr inbounds nuw i8, ptr %3, i64 192
  %43 = load i64, ptr %42, align 8, !tbaa !46
  %44 = add i64 %43, %41
  store i64 %44, ptr %42, align 8, !tbaa !46
  tail call void @timelib_update_from_sse(ptr noundef nonnull %3) #9
  br label %77

45:                                               ; preds = %29
  %46 = tail call ptr @timelib_rel_time_clone(ptr noundef nonnull %1) #9
  %47 = getelementptr inbounds nuw i8, ptr %46, i64 48
  %48 = getelementptr inbounds nuw i8, ptr %46, i64 40
  %49 = load i64, ptr %47, align 8, !tbaa !48
  %.fr21.i = freeze i64 %49
  %50 = icmp slt i64 %.fr21.i, 0
  %.pre.pre = load i64, ptr %48, align 8, !tbaa !42
  br i1 %50, label %.thread, label %56

.thread:                                          ; preds = %45
  %51 = xor i64 %.fr21.i, -1
  %52 = udiv i64 %51, 1000000
  %.neg.i = xor i64 %52, -1
  %53 = add i64 %.pre.pre, %.neg.i
  store i64 %53, ptr %48, align 8, !tbaa !48
  %54 = urem i64 %51, 1000000
  %55 = sub nuw nsw i64 999999, %54
  br label %do_range_limit.exit.sink.split

56:                                               ; preds = %45
  %57 = icmp samesign ugt i64 %.fr21.i, 999999
  br i1 %57, label %58, label %do_range_limit.exit

58:                                               ; preds = %56
  %59 = udiv i64 %.fr21.i, 1000000
  %60 = add i64 %.pre.pre, %59
  store i64 %60, ptr %48, align 8, !tbaa !48
  %61 = urem i64 %.fr21.i, 1000000
  br label %do_range_limit.exit.sink.split

do_range_limit.exit.sink.split:                   ; preds = %58, %.thread
  %.sink = phi i64 [ %55, %.thread ], [ %61, %58 ]
  %.ph = phi i64 [ %53, %.thread ], [ %60, %58 ]
  store i64 %.sink, ptr %47, align 8, !tbaa !48
  br label %do_range_limit.exit

do_range_limit.exit:                              ; preds = %do_range_limit.exit.sink.split, %56
  %62 = phi i64 [ %.pre.pre, %56 ], [ %.ph, %do_range_limit.exit.sink.split ]
  %63 = getelementptr inbounds nuw i8, ptr %46, i64 24
  %64 = load i64, ptr %63, align 8, !tbaa !38
  %65 = getelementptr inbounds nuw i8, ptr %46, i64 32
  %66 = load i64, ptr %65, align 8, !tbaa !40
  %67 = tail call i64 @timelib_hms_to_seconds(i64 noundef %64, i64 noundef %66, i64 noundef %62) #9
  %68 = mul i64 %67, %spec.select
  %69 = getelementptr inbounds nuw i8, ptr %3, i64 192
  %70 = load i64, ptr %69, align 8, !tbaa !46
  %71 = add i64 %70, %68
  store i64 %71, ptr %69, align 8, !tbaa !46
  tail call void @timelib_update_from_sse(ptr noundef nonnull %3) #9
  %72 = load i64, ptr %47, align 8, !tbaa !44
  %73 = mul i64 %72, %spec.select
  %74 = getelementptr inbounds nuw i8, ptr %3, i64 48
  %75 = load i64, ptr %74, align 8, !tbaa !43
  %76 = add i64 %75, %73
  store i64 %76, ptr %74, align 8, !tbaa !43
  tail call void @timelib_do_normalize(ptr noundef nonnull %3) #9
  tail call void @timelib_update_ts(ptr noundef nonnull %3, ptr noundef null) #9
  tail call void @timelib_rel_time_dtor(ptr noundef nonnull %46) #9
  br label %77

77:                                               ; preds = %do_range_limit.exit, %33
  tail call void @timelib_do_normalize(ptr noundef nonnull %3) #9
  br label %78

78:                                               ; preds = %77, %11
  %79 = getelementptr inbounds nuw i8, ptr %3, i64 232
  %80 = load i32, ptr %79, align 8, !tbaa !9
  %81 = icmp eq i32 %80, 3
  br i1 %81, label %82, label %85

82:                                               ; preds = %78
  %83 = getelementptr inbounds nuw i8, ptr %3, i64 72
  %84 = load ptr, ptr %83, align 8, !tbaa !17
  tail call void @timelib_set_timezone(ptr noundef nonnull %3, ptr noundef %84) #9
  br label %85

85:                                               ; preds = %82, %78
  store i32 0, ptr %4, align 4, !tbaa !60
  ret ptr %3
}